ARM GAS  C:\Users\mrgas\AppData\Local\Temp\ccnmNzsD.s 			page 1


   1              		.syntax unified
   2              		.cpu cortex-m3
   3              		.fpu softvfp
   4              		.eabi_attribute 20, 1
   5              		.eabi_attribute 21, 1
   6              		.eabi_attribute 23, 3
   7              		.eabi_attribute 24, 1
   8              		.eabi_attribute 25, 1
   9              		.eabi_attribute 26, 1
  10              		.eabi_attribute 30, 1
  11              		.eabi_attribute 34, 1
  12              		.eabi_attribute 18, 4
  13              		.thumb
  14              		.syntax unified
  15              		.file	"I2C_Comm.c"
  16              		.text
  17              	.Ltext0:
  18              		.cfi_sections	.debug_frame
  19              		.global	__aeabi_f2d
  20              		.section	.text.getTemp,"ax",%progbits
  21              		.align	2
  22              		.global	getTemp
  23              		.thumb
  24              		.thumb_func
  25              		.type	getTemp, %function
  26              	getTemp:
  27              	.LFB64:
  28              		.file 1 "I2C_Comm.c"
   1:I2C_Comm.c    **** /* ========================================
   2:I2C_Comm.c    ****  *
   3:I2C_Comm.c    ****  * Copyright YOUR COMPANY, THE YEAR
   4:I2C_Comm.c    ****  * All Rights Reserved
   5:I2C_Comm.c    ****  * UNPUBLISHED, LICENSED SOFTWARE.
   6:I2C_Comm.c    ****  *
   7:I2C_Comm.c    ****  * CONFIDENTIAL AND PROPRIETARY INFORMATION
   8:I2C_Comm.c    ****  * WHICH IS THE PROPERTY OF your company.
   9:I2C_Comm.c    ****  *
  10:I2C_Comm.c    ****  * ========================================
  11:I2C_Comm.c    **** */
  12:I2C_Comm.c    **** #include "I2C_Comm.h"
  13:I2C_Comm.c    **** 
  14:I2C_Comm.c    **** void getTemp(uint8_t slaveAddr)
  15:I2C_Comm.c    **** {   
  29              		.loc 1 15 0
  30              		.cfi_startproc
  31              		@ args = 0, pretend = 0, frame = 256
  32              		@ frame_needed = 0, uses_anonymous_args = 0
  33              	.LVL0:
  34 0000 30B5     		push	{r4, r5, lr}
  35              		.cfi_def_cfa_offset 12
  36              		.cfi_offset 4, -12
  37              		.cfi_offset 5, -8
  38              		.cfi_offset 14, -4
  39 0002 C3B0     		sub	sp, sp, #268
  40              		.cfi_def_cfa_offset 280
  41 0004 0446     		mov	r4, r0
  42              	.LVL1:
ARM GAS  C:\Users\mrgas\AppData\Local\Temp\ccnmNzsD.s 			page 2


  16:I2C_Comm.c    ****     uint8_t tempMsb, tempLsb = 0; //Variable for storing temperature bytes
  17:I2C_Comm.c    ****     char buf[256]; //Buffer for writing temperature to uart
  18:I2C_Comm.c    ****     int status = I2C_Master_MasterSendStart(slaveAddr, 1); //Read from slave
  43              		.loc 1 18 0
  44 0006 0121     		movs	r1, #1
  45 0008 FFF7FEFF 		bl	I2C_Master_MasterSendStart
  46              	.LVL2:
  19:I2C_Comm.c    ****     if(status == I2C_Master_MSTR_NO_ERROR )
  47              		.loc 1 19 0
  48 000c B8B9     		cbnz	r0, .L2
  20:I2C_Comm.c    ****     {
  21:I2C_Comm.c    ****         //Get the bytes and print to uart using the temperature converter
  22:I2C_Comm.c    ****         tempMsb = I2C_Master_MasterReadByte(I2C_Master_ACK_DATA);
  49              		.loc 1 22 0
  50 000e 0120     		movs	r0, #1
  51              	.LVL3:
  52 0010 FFF7FEFF 		bl	I2C_Master_MasterReadByte
  53              	.LVL4:
  54 0014 0546     		mov	r5, r0
  55              	.LVL5:
  23:I2C_Comm.c    ****         tempLsb = I2C_Master_MasterReadByte(I2C_Master_NAK_DATA);
  56              		.loc 1 23 0
  57 0016 0020     		movs	r0, #0
  58 0018 FFF7FEFF 		bl	I2C_Master_MasterReadByte
  59              	.LVL6:
  24:I2C_Comm.c    ****         sprintf(buf,"The Temperature of slave %d: %.1f deg\r\n",slaveAddr,temperatureConverter(temp
  60              		.loc 1 24 0
  61 001c 0146     		mov	r1, r0
  62 001e 2846     		mov	r0, r5
  63              	.LVL7:
  64 0020 FFF7FEFF 		bl	temperatureConverter
  65              	.LVL8:
  66 0024 FFF7FEFF 		bl	__aeabi_f2d
  67              	.LVL9:
  68 0028 CDE90001 		strd	r0, [sp]
  69 002c 2246     		mov	r2, r4
  70 002e 0C49     		ldr	r1, .L5
  71 0030 02A8     		add	r0, sp, #8
  72 0032 FFF7FEFF 		bl	sprintf
  73              	.LVL10:
  25:I2C_Comm.c    ****         UART_1_PutString(buf);
  74              		.loc 1 25 0
  75 0036 02A8     		add	r0, sp, #8
  76 0038 FFF7FEFF 		bl	UART_1_PutString
  77              	.LVL11:
  78 003c 07E0     		b	.L3
  79              	.LVL12:
  80              	.L2:
  81 003e 0246     		mov	r2, r0
  26:I2C_Comm.c    ****     }
  27:I2C_Comm.c    ****     else
  28:I2C_Comm.c    ****     { 
  29:I2C_Comm.c    ****         //Print the error
  30:I2C_Comm.c    ****         sprintf(buf,"Erro in sending start: errno %d\r\n",status);
  82              		.loc 1 30 0
  83 0040 0849     		ldr	r1, .L5+4
  84 0042 02A8     		add	r0, sp, #8
ARM GAS  C:\Users\mrgas\AppData\Local\Temp\ccnmNzsD.s 			page 3


  85              	.LVL13:
  86 0044 FFF7FEFF 		bl	sprintf
  87              	.LVL14:
  31:I2C_Comm.c    ****         UART_1_PutString(buf);
  88              		.loc 1 31 0
  89 0048 02A8     		add	r0, sp, #8
  90 004a FFF7FEFF 		bl	UART_1_PutString
  91              	.LVL15:
  92              	.L3:
  32:I2C_Comm.c    ****     }
  33:I2C_Comm.c    ****     I2C_Master_MasterSendStop(); //Stop
  93              		.loc 1 33 0
  94 004e FFF7FEFF 		bl	I2C_Master_MasterSendStop
  95              	.LVL16:
  34:I2C_Comm.c    ****     CyDelay(1000); //Delay
  96              		.loc 1 34 0
  97 0052 4FF47A70 		mov	r0, #1000
  98 0056 FFF7FEFF 		bl	CyDelay
  99              	.LVL17:
  35:I2C_Comm.c    **** }
 100              		.loc 1 35 0
 101 005a 43B0     		add	sp, sp, #268
 102              		.cfi_def_cfa_offset 12
 103              		@ sp needed
 104 005c 30BD     		pop	{r4, r5, pc}
 105              	.L6:
 106 005e 00BF     		.align	2
 107              	.L5:
 108 0060 00000000 		.word	.LC0
 109 0064 28000000 		.word	.LC1
 110              		.cfi_endproc
 111              	.LFE64:
 112              		.size	getTemp, .-getTemp
 113              		.section	.rodata.str1.4,"aMS",%progbits,1
 114              		.align	2
 115              	.LC0:
 116 0000 54686520 		.ascii	"The Temperature of slave %d: %.1f deg\015\012\000"
 116      54656D70 
 116      65726174 
 116      75726520 
 116      6F662073 
 117              	.LC1:
 118 0028 4572726F 		.ascii	"Erro in sending start: errno %d\015\012\000"
 118      20696E20 
 118      73656E64 
 118      696E6720 
 118      73746172 
 119              		.text
 120              	.Letext0:
 121              		.file 2 "c:\\program files (x86)\\cypress\\psoc creator\\4.2\\psoc creator\\import\\gnu\\arm\\5.4.
 122              		.file 3 "c:\\program files (x86)\\cypress\\psoc creator\\4.2\\psoc creator\\import\\gnu\\arm\\5.4.
 123              		.file 4 "Generated_Source\\PSoC5/I2C_Master.h"
 124              		.file 5 "Temp_Converter.h"
 125              		.file 6 "c:\\program files (x86)\\cypress\\psoc creator\\4.2\\psoc creator\\import\\gnu\\arm\\5.4.
 126              		.file 7 "Generated_Source\\PSoC5/UART_1.h"
 127              		.file 8 "Generated_Source\\PSoC5/CyLib.h"
 128              		.file 9 "Generated_Source\\PSoC5/core_cm3.h"
ARM GAS  C:\Users\mrgas\AppData\Local\Temp\ccnmNzsD.s 			page 4

