ARM GAS  C:\Users\marti\AppData\Local\Temp\cc6scWni.s 			page 1


   1              		.syntax unified
   2              		.cpu cortex-m3
   3              		.fpu softvfp
   4              		.eabi_attribute 20, 1
   5              		.eabi_attribute 21, 1
   6              		.eabi_attribute 23, 3
   7              		.eabi_attribute 24, 1
   8              		.eabi_attribute 25, 1
   9              		.eabi_attribute 26, 1
  10              		.eabi_attribute 30, 1
  11              		.eabi_attribute 34, 1
  12              		.eabi_attribute 18, 4
  13              		.thumb
  14              		.syntax unified
  15              		.file	"main.c"
  16              		.text
  17              	.Ltext0:
  18              		.cfi_sections	.debug_frame
  19              		.section	.text.ISR_handler,"ax",%progbits
  20              		.align	2
  21              		.global	ISR_handler
  22              		.thumb
  23              		.thumb_func
  24              		.type	ISR_handler, %function
  25              	ISR_handler:
  26              	.LFB63:
  27              		.file 1 "main.c"
   1:main.c        **** /* ========================================
   2:main.c        ****  *
   3:main.c        ****  * Copyright YOUR COMPANY, THE YEAR
   4:main.c        ****  * All Rights Reserved
   5:main.c        ****  * UNPUBLISHED, LICENSED SOFTWARE.
   6:main.c        ****  *
   7:main.c        ****  * CONFIDENTIAL AND PROPRIETARY INFORMATION
   8:main.c        ****  * WHICH IS THE PROPERTY OF your company.
   9:main.c        ****  *
  10:main.c        ****  * ========================================
  11:main.c        **** */
  12:main.c        **** #include "project.h"
  13:main.c        **** 
  14:main.c        **** 
  15:main.c        **** CY_ISR(ISR_handler)
  16:main.c        **** {
  28              		.loc 1 16 0
  29              		.cfi_startproc
  30              		@ args = 0, pretend = 0, frame = 0
  31              		@ frame_needed = 0, uses_anonymous_args = 0
  32 0000 10B5     		push	{r4, lr}
  33              		.cfi_def_cfa_offset 8
  34              		.cfi_offset 4, -8
  35              		.cfi_offset 14, -4
  17:main.c        ****     uint8_t bytesToRead=SPI_GetRxBufferSize();
  36              		.loc 1 17 0
  37 0002 FFF7FEFF 		bl	SPI_GetRxBufferSize
  38              	.LVL0:
  39 0006 0446     		mov	r4, r0
  40              	.LVL1:
ARM GAS  C:\Users\marti\AppData\Local\Temp\cc6scWni.s 			page 2


  18:main.c        ****     while(bytesToRead!=0)
  41              		.loc 1 18 0
  42 0008 15E0     		b	.L2
  43              	.L6:
  44              	.LBB2:
  19:main.c        ****     {
  20:main.c        ****         uint8_t ByteReceived=SPI_ReadRxData();
  45              		.loc 1 20 0
  46 000a FFF7FEFF 		bl	SPI_ReadRxData
  47              	.LVL2:
  21:main.c        ****         //SPI_ClearTxBuffer();
  22:main.c        ****         if(ByteReceived==0b00000001)
  48              		.loc 1 22 0
  49 000e 0128     		cmp	r0, #1
  50 0010 02D1     		bne	.L3
  23:main.c        ****             LED_Write(1u);
  51              		.loc 1 23 0
  52 0012 FFF7FEFF 		bl	LED_Write
  53              	.LVL3:
  54 0016 09E0     		b	.L4
  55              	.LVL4:
  56              	.L3:
  24:main.c        ****         else if(ByteReceived==0b00000000)
  57              		.loc 1 24 0
  58 0018 10B9     		cbnz	r0, .L5
  25:main.c        ****             LED_Write(0u);
  59              		.loc 1 25 0
  60 001a FFF7FEFF 		bl	LED_Write
  61              	.LVL5:
  62 001e 05E0     		b	.L4
  63              	.LVL6:
  64              	.L5:
  26:main.c        ****         else if(ByteReceived==0b00000011)
  65              		.loc 1 26 0
  66 0020 0328     		cmp	r0, #3
  67 0022 03D1     		bne	.L4
  27:main.c        ****         {
  28:main.c        ****             SPI_WriteTxData(LED_Read());
  68              		.loc 1 28 0
  69 0024 FFF7FEFF 		bl	LED_Read
  70              	.LVL7:
  71 0028 FFF7FEFF 		bl	SPI_WriteTxData
  72              	.LVL8:
  73              	.L4:
  29:main.c        **** //      SPI_WriteTxData(0b00000100);
  30:main.c        **** //            if(LED_Read()==1u)
  31:main.c        **** //            {
  32:main.c        **** //                SPI_WriteTxData(LED_Read());
  33:main.c        **** ////                SPI_WriteTxData(0b00000100);
  34:main.c        **** ////                SPI_WriteTxData(0b00000100);
  35:main.c        **** ////                SPI_WriteTxData(0b00000100);
  36:main.c        **** ////                SPI_WriteTxData(0b00000100);
  37:main.c        **** //            }else if(LED_Read()==0u){
  38:main.c        **** //                SPI_WriteTxData(0b00000101);
  39:main.c        **** ////                SPI_WriteTxData(0b00000101);
  40:main.c        **** ////                SPI_WriteTxData(0b00000101);
  41:main.c        **** ////                SPI_WriteTxData(0b00000101);
ARM GAS  C:\Users\marti\AppData\Local\Temp\cc6scWni.s 			page 3


  42:main.c        **** ////                SPI_WriteTxData(0b00000101);
  43:main.c        **** //            }
  44:main.c        ****  
  45:main.c        ****     }
  46:main.c        **** //    else 
  47:main.c        ****  //       LED_Write(1u);
  48:main.c        ****     
  49:main.c        ****     UART_1_PutString("HEY");
  74              		.loc 1 49 0
  75 002c 0548     		ldr	r0, .L8
  76 002e FFF7FEFF 		bl	UART_1_PutString
  77              	.LVL9:
  50:main.c        ****    --bytesToRead;
  78              		.loc 1 50 0
  79 0032 013C     		subs	r4, r4, #1
  80              	.LVL10:
  81 0034 E4B2     		uxtb	r4, r4
  82              	.LVL11:
  83              	.L2:
  84              	.LBE2:
  18:main.c        ****     {
  85              		.loc 1 18 0
  86 0036 002C     		cmp	r4, #0
  87 0038 E7D1     		bne	.L6
  51:main.c        ****   }
  52:main.c        ****     UART_1_PutString("Hello");
  88              		.loc 1 52 0
  89 003a 0348     		ldr	r0, .L8+4
  90 003c FFF7FEFF 		bl	UART_1_PutString
  91              	.LVL12:
  92 0040 10BD     		pop	{r4, pc}
  93              	.LVL13:
  94              	.L9:
  95 0042 00BF     		.align	2
  96              	.L8:
  97 0044 00000000 		.word	.LC0
  98 0048 04000000 		.word	.LC1
  99              		.cfi_endproc
 100              	.LFE63:
 101              		.size	ISR_handler, .-ISR_handler
 102              		.section	.text.main,"ax",%progbits
 103              		.align	2
 104              		.global	main
 105              		.thumb
 106              		.thumb_func
 107              		.type	main, %function
 108              	main:
 109              	.LFB64:
  53:main.c        **** }
  54:main.c        **** 
  55:main.c        **** int main(void)
  56:main.c        **** {
 110              		.loc 1 56 0
 111              		.cfi_startproc
 112              		@ Volatile: function does not return.
 113              		@ args = 0, pretend = 0, frame = 0
 114              		@ frame_needed = 0, uses_anonymous_args = 0
ARM GAS  C:\Users\marti\AppData\Local\Temp\cc6scWni.s 			page 4


 115 0000 08B5     		push	{r3, lr}
 116              		.cfi_def_cfa_offset 8
 117              		.cfi_offset 3, -8
 118              		.cfi_offset 14, -4
  57:main.c        ****     CyGlobalIntEnable; /* Enable global interrupts. */
 119              		.loc 1 57 0
 120              		.syntax unified
 121              	@ 57 "main.c" 1
 122 0002 62B6     		CPSIE   i
 123              	@ 0 "" 2
  58:main.c        ****     SPI_Start();
 124              		.loc 1 58 0
 125              		.thumb
 126              		.syntax unified
 127 0004 FFF7FEFF 		bl	SPI_Start
 128              	.LVL14:
  59:main.c        ****     ISR_StartEx(ISR_handler);
 129              		.loc 1 59 0
 130 0008 0248     		ldr	r0, .L13
 131 000a FFF7FEFF 		bl	ISR_StartEx
 132              	.LVL15:
  60:main.c        ****     SPI_EnableRxInt();
 133              		.loc 1 60 0
 134 000e FFF7FEFF 		bl	SPI_EnableRxInt
 135              	.LVL16:
 136              	.L11:
 137 0012 FEE7     		b	.L11
 138              	.L14:
 139              		.align	2
 140              	.L13:
 141 0014 00000000 		.word	ISR_handler
 142              		.cfi_endproc
 143              	.LFE64:
 144              		.size	main, .-main
 145              		.section	.rodata.str1.4,"aMS",%progbits,1
 146              		.align	2
 147              	.LC0:
 148 0000 48455900 		.ascii	"HEY\000"
 149              	.LC1:
 150 0004 48656C6C 		.ascii	"Hello\000"
 150      6F00
 151              		.text
 152              	.Letext0:
 153              		.file 2 "c:\\program files (x86)\\cypress\\psoc creator\\4.2\\psoc creator\\import\\gnu\\arm\\5.4.
 154              		.file 3 "c:\\program files (x86)\\cypress\\psoc creator\\4.2\\psoc creator\\import\\gnu\\arm\\5.4.
 155              		.file 4 "Generated_Source\\PSoC5/SPI.h"
 156              		.file 5 "Generated_Source\\PSoC5/LED.h"
 157              		.file 6 "Generated_Source\\PSoC5/UART_1.h"
 158              		.file 7 "Generated_Source\\PSoC5/ISR.h"
 159              		.file 8 "Generated_Source\\PSoC5/core_cm3.h"