ARM GAS  C:\Users\mrgas\AppData\Local\Temp\ccFsE4yw.s 			page 1


   1              		.syntax unified
   2              		.cpu cortex-m3
   3              		.fpu softvfp
   4              		.eabi_attribute 20, 1
   5              		.eabi_attribute 21, 1
   6              		.eabi_attribute 23, 3
   7              		.eabi_attribute 24, 1
   8              		.eabi_attribute 25, 1
   9              		.eabi_attribute 26, 1
  10              		.eabi_attribute 30, 1
  11              		.eabi_attribute 34, 1
  12              		.eabi_attribute 18, 4
  13              		.thumb
  14              		.syntax unified
  15              		.file	"main.c"
  16              		.text
  17              	.Ltext0:
  18              		.cfi_sections	.debug_frame
  19              		.section	.text.main,"ax",%progbits
  20              		.align	2
  21              		.global	main
  22              		.thumb
  23              		.thumb_func
  24              		.type	main, %function
  25              	main:
  26              	.LFB64:
  27              		.file 1 "main.c"
   1:main.c        **** /* ========================================
   2:main.c        ****  *
   3:main.c        ****  * Copyright YOUR COMPANY, THE YEAR
   4:main.c        ****  * All Rights Reserved
   5:main.c        ****  * UNPUBLISHED, LICENSED SOFTWARE.
   6:main.c        ****  *
   7:main.c        ****  * CONFIDENTIAL AND PROPRIETARY INFORMATION
   8:main.c        ****  * WHICH IS THE PROPERTY OF your company.
   9:main.c        ****  *
  10:main.c        ****  * ========================================
  11:main.c        **** */
  12:main.c        **** #include <stdio.h>
  13:main.c        **** #include "project.h"
  14:main.c        **** #include "SPI_Master_Comm.h"
  15:main.c        **** 
  16:main.c        **** CY_ISR_PROTO(ISR_UART_rx_handler);
  17:main.c        **** void handleByteReceived(uint8_t byteReceived);
  18:main.c        **** 
  19:main.c        **** int main(void)
  20:main.c        **** {
  28              		.loc 1 20 0
  29              		.cfi_startproc
  30              		@ Volatile: function does not return.
  31              		@ args = 0, pretend = 0, frame = 0
  32              		@ frame_needed = 0, uses_anonymous_args = 0
  33 0000 08B5     		push	{r3, lr}
  34              		.cfi_def_cfa_offset 8
  35              		.cfi_offset 3, -8
  36              		.cfi_offset 14, -4
  21:main.c        ****     CyGlobalIntEnable; /* Enable global interrupts. */
ARM GAS  C:\Users\mrgas\AppData\Local\Temp\ccFsE4yw.s 			page 2


  37              		.loc 1 21 0
  38              		.syntax unified
  39              	@ 21 "main.c" 1
  40 0002 62B6     		CPSIE   i
  41              	@ 0 "" 2
  22:main.c        ****     isr_1_StartEx(ISR_UART_rx_handler);
  42              		.loc 1 22 0
  43              		.thumb
  44              		.syntax unified
  45 0004 0948     		ldr	r0, .L4
  46 0006 FFF7FEFF 		bl	isr_1_StartEx
  47              	.LVL0:
  23:main.c        ****     UART_1_Start();
  48              		.loc 1 23 0
  49 000a FFF7FEFF 		bl	UART_1_Start
  50              	.LVL1:
  24:main.c        ****     SPIM_1_Start();
  51              		.loc 1 24 0
  52 000e FFF7FEFF 		bl	SPIM_1_Start
  53              	.LVL2:
  25:main.c        ****     UART_1_PutString("SPI communication application started\r\n");
  54              		.loc 1 25 0
  55 0012 0748     		ldr	r0, .L4+4
  56 0014 FFF7FEFF 		bl	UART_1_PutString
  57              	.LVL3:
  26:main.c        ****     UART_1_PutString("q: Turn on led\r\n");
  58              		.loc 1 26 0
  59 0018 0648     		ldr	r0, .L4+8
  60 001a FFF7FEFF 		bl	UART_1_PutString
  61              	.LVL4:
  27:main.c        ****     UART_1_PutString("w: Turn off led\r\n");
  62              		.loc 1 27 0
  63 001e 0648     		ldr	r0, .L4+12
  64 0020 FFF7FEFF 		bl	UART_1_PutString
  65              	.LVL5:
  28:main.c        ****     UART_1_PutString("e: Get led status\r\n");
  66              		.loc 1 28 0
  67 0024 0548     		ldr	r0, .L4+16
  68 0026 FFF7FEFF 		bl	UART_1_PutString
  69              	.LVL6:
  70              	.L2:
  71 002a FEE7     		b	.L2
  72              	.L5:
  73              		.align	2
  74              	.L4:
  75 002c 00000000 		.word	ISR_UART_rx_handler
  76 0030 00000000 		.word	.LC0
  77 0034 28000000 		.word	.LC1
  78 0038 3C000000 		.word	.LC2
  79 003c 50000000 		.word	.LC3
  80              		.cfi_endproc
  81              	.LFE64:
  82              		.size	main, .-main
  83              		.section	.text.handleByteReceived,"ax",%progbits
  84              		.align	2
  85              		.global	handleByteReceived
  86              		.thumb
ARM GAS  C:\Users\mrgas\AppData\Local\Temp\ccFsE4yw.s 			page 3


  87              		.thumb_func
  88              		.type	handleByteReceived, %function
  89              	handleByteReceived:
  90              	.LFB66:
  29:main.c        ****     
  30:main.c        ****     for(;;)
  31:main.c        ****     {
  32:main.c        ****         /* Place your application code here. */
  33:main.c        ****     }
  34:main.c        **** }
  35:main.c        **** 
  36:main.c        **** CY_ISR(ISR_UART_rx_handler)
  37:main.c        **** {
  38:main.c        ****     uint8_t bytesToRead = UART_1_GetRxBufferSize();
  39:main.c        ****     while (bytesToRead > 0)
  40:main.c        ****     {
  41:main.c        ****         uint8_t byteReceived = UART_1_ReadRxData();
  42:main.c        ****         UART_1_WriteTxData(byteReceived); // echo back
  43:main.c        ****         
  44:main.c        ****         handleByteReceived(byteReceived);
  45:main.c        ****         
  46:main.c        ****         bytesToRead--;
  47:main.c        ****     }
  48:main.c        **** }
  49:main.c        **** 
  50:main.c        **** void handleByteReceived(uint8_t byteReceived)
  51:main.c        **** {
  91              		.loc 1 51 0
  92              		.cfi_startproc
  93              		@ args = 0, pretend = 0, frame = 256
  94              		@ frame_needed = 0, uses_anonymous_args = 0
  95              	.LVL7:
  96 0000 00B5     		push	{lr}
  97              		.cfi_def_cfa_offset 4
  98              		.cfi_offset 14, -4
  99 0002 C1B0     		sub	sp, sp, #260
 100              		.cfi_def_cfa_offset 264
  52:main.c        ****     switch(byteReceived)
 101              		.loc 1 52 0
 102 0004 7128     		cmp	r0, #113
 103 0006 04D0     		beq	.L8
 104 0008 7728     		cmp	r0, #119
 105 000a 08D0     		beq	.L9
 106 000c 6528     		cmp	r0, #101
 107 000e 16D1     		bne	.L6
 108 0010 0BE0     		b	.L10
 109              	.L8:
  53:main.c        ****     {
  54:main.c        ****         case 'q' :
  55:main.c        ****         {
  56:main.c        ****             UART_1_PutString("Led ON!\r\n");
 110              		.loc 1 56 0
 111 0012 0C48     		ldr	r0, .L12
 112              	.LVL8:
 113 0014 FFF7FEFF 		bl	UART_1_PutString
 114              	.LVL9:
  57:main.c        ****             turnOnLed();
ARM GAS  C:\Users\mrgas\AppData\Local\Temp\ccFsE4yw.s 			page 4


 115              		.loc 1 57 0
 116 0018 FFF7FEFF 		bl	turnOnLed
 117              	.LVL10:
  58:main.c        ****         }
  59:main.c        ****         break;
 118              		.loc 1 59 0
 119 001c 0FE0     		b	.L6
 120              	.LVL11:
 121              	.L9:
  60:main.c        ****         case 'w':
  61:main.c        ****         {
  62:main.c        ****             UART_1_PutString("Led OFF!\r\n");
 122              		.loc 1 62 0
 123 001e 0A48     		ldr	r0, .L12+4
 124              	.LVL12:
 125 0020 FFF7FEFF 		bl	UART_1_PutString
 126              	.LVL13:
  63:main.c        ****             turnOffLed();
 127              		.loc 1 63 0
 128 0024 FFF7FEFF 		bl	turnOffLed
 129              	.LVL14:
  64:main.c        ****         }
  65:main.c        ****         break;
 130              		.loc 1 65 0
 131 0028 09E0     		b	.L6
 132              	.LVL15:
 133              	.L10:
 134              	.LBB2:
  66:main.c        ****         case 'e':
  67:main.c        ****         {
  68:main.c        ****             char buf[256];
  69:main.c        ****             uint8_t ledStatus = getLedStatus();
 135              		.loc 1 69 0
 136 002a FFF7FEFF 		bl	getLedStatus
 137              	.LVL16:
  70:main.c        ****             sprintf(buf,"Led status is %d\r\n", ledStatus);
 138              		.loc 1 70 0
 139 002e 0246     		mov	r2, r0
 140 0030 0649     		ldr	r1, .L12+8
 141 0032 6846     		mov	r0, sp
 142              	.LVL17:
 143 0034 FFF7FEFF 		bl	sprintf
 144              	.LVL18:
  71:main.c        ****             UART_1_PutString(buf);
 145              		.loc 1 71 0
 146 0038 6846     		mov	r0, sp
 147 003a FFF7FEFF 		bl	UART_1_PutString
 148              	.LVL19:
 149              	.L6:
 150              	.LBE2:
  72:main.c        ****         }
  73:main.c        ****         default :
  74:main.c        ****         {
  75:main.c        ****             // nothing
  76:main.c        ****         }
  77:main.c        ****         break;
  78:main.c        ****     }
ARM GAS  C:\Users\mrgas\AppData\Local\Temp\ccFsE4yw.s 			page 5


  79:main.c        **** }
 151              		.loc 1 79 0
 152 003e 41B0     		add	sp, sp, #260
 153              		.cfi_def_cfa_offset 4
 154              		@ sp needed
 155 0040 5DF804FB 		ldr	pc, [sp], #4
 156              	.L13:
 157              		.align	2
 158              	.L12:
 159 0044 64000000 		.word	.LC4
 160 0048 70000000 		.word	.LC5
 161 004c 7C000000 		.word	.LC6
 162              		.cfi_endproc
 163              	.LFE66:
 164              		.size	handleByteReceived, .-handleByteReceived
 165              		.section	.text.ISR_UART_rx_handler,"ax",%progbits
 166              		.align	2
 167              		.global	ISR_UART_rx_handler
 168              		.thumb
 169              		.thumb_func
 170              		.type	ISR_UART_rx_handler, %function
 171              	ISR_UART_rx_handler:
 172              	.LFB65:
  37:main.c        ****     uint8_t bytesToRead = UART_1_GetRxBufferSize();
 173              		.loc 1 37 0
 174              		.cfi_startproc
 175              		@ args = 0, pretend = 0, frame = 0
 176              		@ frame_needed = 0, uses_anonymous_args = 0
 177 0000 38B5     		push	{r3, r4, r5, lr}
 178              		.cfi_def_cfa_offset 16
 179              		.cfi_offset 3, -16
 180              		.cfi_offset 4, -12
 181              		.cfi_offset 5, -8
 182              		.cfi_offset 14, -4
  38:main.c        ****     while (bytesToRead > 0)
 183              		.loc 1 38 0
 184 0002 FFF7FEFF 		bl	UART_1_GetRxBufferSize
 185              	.LVL20:
 186 0006 0446     		mov	r4, r0
 187              	.LVL21:
  39:main.c        ****     {
 188              		.loc 1 39 0
 189 0008 09E0     		b	.L15
 190              	.L16:
 191              	.LBB3:
  41:main.c        ****         UART_1_WriteTxData(byteReceived); // echo back
 192              		.loc 1 41 0
 193 000a FFF7FEFF 		bl	UART_1_ReadRxData
 194              	.LVL22:
 195 000e 0546     		mov	r5, r0
 196              	.LVL23:
  42:main.c        ****         
 197              		.loc 1 42 0
 198 0010 FFF7FEFF 		bl	UART_1_WriteTxData
 199              	.LVL24:
  44:main.c        ****         
 200              		.loc 1 44 0
ARM GAS  C:\Users\mrgas\AppData\Local\Temp\ccFsE4yw.s 			page 6


 201 0014 2846     		mov	r0, r5
 202 0016 FFF7FEFF 		bl	handleByteReceived
 203              	.LVL25:
  46:main.c        ****     }
 204              		.loc 1 46 0
 205 001a 013C     		subs	r4, r4, #1
 206              	.LVL26:
 207 001c E4B2     		uxtb	r4, r4
 208              	.LVL27:
 209              	.L15:
 210              	.LBE3:
  39:main.c        ****     {
 211              		.loc 1 39 0
 212 001e 002C     		cmp	r4, #0
 213 0020 F3D1     		bne	.L16
  48:main.c        **** 
 214              		.loc 1 48 0
 215 0022 38BD     		pop	{r3, r4, r5, pc}
 216              		.cfi_endproc
 217              	.LFE65:
 218              		.size	ISR_UART_rx_handler, .-ISR_UART_rx_handler
 219              		.section	.rodata.str1.4,"aMS",%progbits,1
 220              		.align	2
 221              	.LC0:
 222 0000 53504920 		.ascii	"SPI communication application started\015\012\000"
 222      636F6D6D 
 222      756E6963 
 222      6174696F 
 222      6E206170 
 223              	.LC1:
 224 0028 713A2054 		.ascii	"q: Turn on led\015\012\000"
 224      75726E20 
 224      6F6E206C 
 224      65640D0A 
 224      00
 225 0039 000000   		.space	3
 226              	.LC2:
 227 003c 773A2054 		.ascii	"w: Turn off led\015\012\000"
 227      75726E20 
 227      6F666620 
 227      6C65640D 
 227      0A00
 228 004e 0000     		.space	2
 229              	.LC3:
 230 0050 653A2047 		.ascii	"e: Get led status\015\012\000"
 230      6574206C 
 230      65642073 
 230      74617475 
 230      730D0A00 
 231              	.LC4:
 232 0064 4C656420 		.ascii	"Led ON!\015\012\000"
 232      4F4E210D 
 232      0A00
 233 006e 0000     		.space	2
 234              	.LC5:
 235 0070 4C656420 		.ascii	"Led OFF!\015\012\000"
 235      4F464621 
ARM GAS  C:\Users\mrgas\AppData\Local\Temp\ccFsE4yw.s 			page 7


 235      0D0A00
 236 007b 00       		.space	1
 237              	.LC6:
 238 007c 4C656420 		.ascii	"Led status is %d\015\012\000"
 238      73746174 
 238      75732069 
 238      73202564 
 238      0D0A00
 239              		.text
 240              	.Letext0:
 241              		.file 2 "c:\\program files (x86)\\cypress\\psoc creator\\4.2\\psoc creator\\import\\gnu\\arm\\5.4.
 242              		.file 3 "c:\\program files (x86)\\cypress\\psoc creator\\4.2\\psoc creator\\import\\gnu\\arm\\5.4.
 243              		.file 4 "Generated_Source\\PSoC5/isr_1.h"
 244              		.file 5 "Generated_Source\\PSoC5/UART_1.h"
 245              		.file 6 "Generated_Source\\PSoC5/SPIM_1.h"
 246              		.file 7 "SPI_Master_Comm.h"
 247              		.file 8 "c:\\program files (x86)\\cypress\\psoc creator\\4.2\\psoc creator\\import\\gnu\\arm\\5.4.
 248              		.file 9 "Generated_Source\\PSoC5/core_cm3.h"